; Function Attrs: mustprogress nofree norecurse nounwind willreturn uwtable
define void @_ZN7openvdb5v11_011compression10PageHandleC2ERKSt10shared_ptrINS1_4PageEEii(ptr nocapture noundef nonnull writeonly align 8 dereferenceable(24) %this, ptr nocapture noundef nonnull readonly align 8 dereferenceable(16) %page, i32 noundef %index, i32 noundef %size) unnamed_addr #10 align 2 personality ptr @__gxx_personality_v0 {
entry:
  %0 = load ptr, ptr %page, align 8
  store ptr %0, ptr %this, align 8
  %_M_refcount.i.i = getelementptr inbounds i8, ptr %this, i64 8
  %_M_refcount3.i.i = getelementptr inbounds i8, ptr %page, i64 8
  %1 = load ptr, ptr %_M_refcount3.i.i, align 8
  store ptr %1, ptr %_M_refcount.i.i, align 8
  %cmp.not.i.i.i = icmp eq ptr %1, null
  br i1 %cmp.not.i.i.i, label %_ZNSt10shared_ptrIN7openvdb5v11_011compression4PageEEC2ERKS4_.exit, label %if.then.i.i.i

if.then.i.i.i:                                    ; preds = %entry
  %_M_use_count.i.i.i.i = getelementptr inbounds i8, ptr %1, i64 8
  %2 = load i8, ptr @__libc_single_threaded, align 1
  %tobool.i.not.i.i.i.i = icmp eq i8 %2, 0
  br i1 %tobool.i.not.i.i.i.i, label %if.else.i.i.i.i.i, label %if.then.i.i.i.i.i

if.then.i.i.i.i.i:                                ; preds = %if.then.i.i.i
  %3 = load i32, ptr %_M_use_count.i.i.i.i, align 4
  %add.i.i.i.i.i = add nsw i32 %3, 1
  store i32 %add.i.i.i.i.i, ptr %_M_use_count.i.i.i.i, align 4
  br label %_ZNSt10shared_ptrIN7openvdb5v11_011compression4PageEEC2ERKS4_.exit

if.else.i.i.i.i.i:                                ; preds = %if.then.i.i.i
  %4 = atomicrmw volatile add ptr %_M_use_count.i.i.i.i, i32 1 acq_rel, align 4
  br label %_ZNSt10shared_ptrIN7openvdb5v11_011compression4PageEEC2ERKS4_.exit

_ZNSt10shared_ptrIN7openvdb5v11_011compression4PageEEC2ERKS4_.exit: ; preds = %entry, %if.then.i.i.i.i.i, %if.else.i.i.i.i.i
  %mIndex = getelementptr inbounds i8, ptr %this, i64 16
  store i32 %index, ptr %mIndex, align 8
  %mSize = getelementptr inbounds i8, ptr %this, i64 20
  store i32 %size, ptr %mSize, align 4
  ret void
}